(dp0
S'PRP$'
p1
(S'pronoun, possessive'
p2
S'her his mine my our ours their thy your '
p3
tp4
sS'VBG'
p5
(S'verb, present participle or gerund'
p6
S"telegraphing stirring focusing angering judging stalling lactating hankerin' alleging veering capping approaching traveling besieging encrypting interrupting erasing wincing ... "
p7
tp8
sS'VBD'
p9
(S'verb, past tense'
p10
S'dipped pleaded swiped regummed soaked tidied convened halted registered cushioned exacted snubbed strode aimed adopted belied figgered speculated wore appreciated contemplated ... '
p11
tp12
sS'``'
p13
(S'opening quotation mark'
p14
S'` `` '
p15
tp16
sS'VBN'
p17
(S'verb, past participle'
p18
S'multihulled dilapidated aerosolized chaired languished panelized used experimented flourished imitated reunifed factored condensed sheared unsettled primed dubbed desired ... '
p19
tp20
sS','
p21
(S'comma'
p22
S', '
p23
tp24
sS"''"
p25
(S'closing quotation mark'
p26
S"' '' "
p27
tp28
sS'VBP'
p29
(S'verb, present tense, not 3rd person singular'
p30
S'predominate wrap resort sue twist spill cure lengthen brush terminate appear tend stray glisten obtain comprise detest tease attract emphasize mold postpone sever return wag ... '
p31
tp32
sS'WDT'
p33
(S'WH-determiner'
p34
S'that what whatever which whichever '
p35
tp36
sS'JJ'
p37
(S'adjective or numeral, ordinal'
p38
S'third ill-mannered pre-war regrettable oiled calamitous first separable ectoplasmic battery-powered participatory fourth still-to-be-named multilingual multi-disciplinary ... '
p39
tp40
sS'WP'
p41
(S'WH-pronoun'
p42
S'that what whatever whatsoever which who whom whosoever '
p43
tp44
sS'VBZ'
p45
(S'verb, present tense, 3rd person singular'
p46
S'bases reconstructs marks mixes displeases seals carps weaves snatches slumps stretches authorizes smolders pictures emerges stockpiles seduces fizzes uses bolsters slaps speaks pleads ... '
p47
tp48
sS'DT'
p49
(S'determiner'
p50
S'all an another any both del each either every half la many much nary neither no some such that the them these this those '
p51
tp52
sS'RP'
p53
(S'particle'
p54
S'aboard about across along apart around aside at away back before behind by crop down ever fast for forth from go high i.e. in into just later low more off on open out over per pie raising start teeth that through under unto up up-pp upon whole with you '
p55
tp56
sS'$'
p57
(S'dollar'
p58
S'$ -$ --$ A$ C$ HK$ M$ NZ$ S$ U.S.$ US$ '
p59
tp60
sS'NN'
p61
(S'noun, common, singular or mass'
p62
S'common-carrier cabbage knuckle-duster Casino afghan shed thermostat investment slide humour falloff slick wind hyena override subhumanity machinist ... '
p63
tp64
sS')'
p65
(S'closing parenthesis'
p66
S') ] } '
p67
tp68
sS'('
p69
(S'opening parenthesis'
p70
S'( [ { '
p71
tp72
sS'FW'
p73
(S'foreign word'
p74
S"gemeinschaft hund ich jeux habeas Haementeria Herr K'ang-si vous lutihaw alai je jour objets salutaris fille quibusdam pas trop Monte terram fiche oui corporis ... "
p75
tp76
sS'POS'
p77
(S'genitive marker'
p78
S"' 's "
p79
tp80
sS'.'
p81
(S'sentence terminator'
p82
S'. ! ? '
p83
tp84
sS'TO'
p85
(S'"to" as preposition or infinitive marker'
p86
S'to '
p87
tp88
sS'LS'
p89
(S'list item marker'
p90
S'A A. B B. C C. D E F First G H I J K One SP-44001 SP-44002 SP-44005 SP-44007 Second Third Three Two * a b c d first five four one six three two '
p91
tp92
sS'RB'
p93
(S'adverb'
p94
S'occasionally unabatingly maddeningly adventurously professedly stirringly prominently technologically magisterially predominately swiftly fiscally pitilessly ... '
p95
tp96
sS':'
p97
(S'colon or ellipsis'
p98
S': ; ... '
p99
tp100
sS'NNS'
p101
(S'noun, common, plural'
p102
S'undergraduates scotches bric-a-brac products bodyguards facets coasts divestitures storehouses designs clubs fragrances averages subjectivists apprehensions muses factory-jobs ... '
p103
tp104
sS'NNP'
p105
(S'noun, proper, singular'
p106
S'Motown Venneboerger Czestochwa Ranzer Conchita Trumplane Christos Oceanside Escobar Kreisler Sawyer Cougar Yvette Ervin ODI Darryl CTCA Shannon A.K.C. Meltex Liverpool ... '
p107
tp108
sS'VB'
p109
(S'verb, base form'
p110
S'ask assemble assess assign assume atone attention avoid bake balkanize bank begin behold believe bend benefit bevel beware bless boil bomb boost brace break bring broil brush build ... '
p111
tp112
sS'WRB'
p113
(S'Wh-adverb'
p114
S'how however whence whenever where whereby whereever wherein whereof why '
p115
tp116
sS'CC'
p117
(S'conjunction, coordinating'
p118
S"& 'n and both but either et for less minus neither nor or plus so therefore times v. versus vs. whether yet "
p119
tp120
sS'PDT'
p121
(S'pre-determiner'
p122
S'all both half many quite such sure this '
p123
tp124
sS'RBS'
p125
(S'adverb, superlative'
p126
S'best biggest bluntest earliest farthest first furthest hardest heartiest highest largest least less most nearest second tightest worst '
p127
tp128
sS'RBR'
p129
(S'adverb, comparative'
p130
S'further gloomier grander graver greater grimmer harder harsher healthier heavier higher however larger later leaner lengthier less-perfectly lesser lonelier longer louder lower more ... '
p131
tp132
sS'CD'
p133
(S'numeral, cardinal'
p134
S"mid-1890 nine-thirty forty-two one-tenth ten million 0.5 one forty-seven 1987 twenty '79 zero two 78-degrees eighty-four IX '60s .025 fifteen 271,124 dozen quintillion DM2,000 ... "
p135
tp136
sS'PRP'
p137
(S'pronoun, personal'
p138
S'hers herself him himself hisself it itself me myself one oneself ours ourselves ownself self she thee theirs them themselves they thou thy us '
p139
tp140
sS'EX'
p141
(S'existential there'
p142
S'there '
p143
tp144
sS'IN'
p145
(S'preposition or conjunction, subordinating'
p146
S'astride among uppon whether out inside pro despite on by throughout below within for towards near behind atop around if like until below next into if beside ... '
p147
tp148
sS'WP$'
p149
(S'WH-pronoun, possessive'
p150
S'whose '
p151
tp152
sS'MD'
p153
(S'modal auxiliary'
p154
S"can cannot could couldn't dare may might must need ought shall should shouldn't will would "
p155
tp156
sS'NNPS'
p157
(S'noun, proper, plural'
p158
S'Americans Americas Amharas Amityvilles Amusements Anarcho-Syndicalists Andalusians Andes Andruses Angels Animals Anthony Antilles Antiques Apache Apaches Apocrypha ... '
p159
tp160
sS'--'
p161
(S'dash'
p162
S'-- '
p163
tp164
sS'JJS'
p165
(S'adjective, superlative'
p166
S'calmest cheapest choicest classiest cleanest clearest closest commonest corniest costliest crassest creepiest crudest cutest darkest deadliest dearest deepest densest dinkiest ... '
p167
tp168
sS'JJR'
p169
(S'adjective, comparative'
p170
S'bleaker braver breezier briefer brighter brisker broader bumper busier calmer cheaper choosier cleaner clearer closer colder commoner costlier cozier creamier crunchier cuter ... '
p171
tp172
sS'SYM'
p173
(S'symbol'
p174
S"% & ' '' ''. ) ). * + ,. < = > @ A[fj] U.S U.S.S.R * ** *** "
p175
tp176
sS'UH'
p177
(S'interjection'
p178
S'Goodbye Goody Gosh Wow Jeepers Jee-sus Hubba Hey Kee-reist Oops amen huh howdy uh dammit whammo shucks heck anyways whodunnit honey golly man baby diddle hush sonuvabitch ... '
p179
tp180
s.